target datalayout = "e-m:e-p270:32:32-p271:32:32-p272:64:64-i64:64-i128:128-f80:128-n8:16:32:64-S128"
target triple = "x86_64-pc-linux-gnu"

; Function Attrs: nounwind uwtable
define dso_local void @jcopy_markers_setup(ptr noundef %0, i32 noundef %1) #0 {
  %3 = alloca ptr, align 8
  %4 = alloca i32, align 4
  %5 = alloca i32, align 4
  store ptr %0, ptr %3, align 8, !tbaa !31
  store i32 %1, ptr %4, align 4, !tbaa !28
  call void @llvm.lifetime.start.p0(i64 4, ptr %5) #6
  %6 = load i32, ptr %4, align 4, !tbaa !28
  %7 = icmp ne i32 %6, 0
  br i1 %7, label %8, label %13

8:                                                ; preds = %2
  %9 = load i32, ptr %4, align 4, !tbaa !28
  %10 = icmp ne i32 %9, 4
  br i1 %10, label %11, label %13

11:                                               ; preds = %8
  %12 = load ptr, ptr %3, align 8, !tbaa !31
  call void @jpeg_save_markers(ptr noundef %12, i32 noundef 254, i32 noundef 65535)
  br label %13

13:                                               ; preds = %11, %8, %2
  %14 = load i32, ptr %4, align 4, !tbaa !28
  %15 = icmp eq i32 %14, 2
  br i1 %15, label %19, label %16

16:                                               ; preds = %13
  %17 = load i32, ptr %4, align 4, !tbaa !28
  %18 = icmp eq i32 %17, 3
  br i1 %18, label %19, label %38

19:                                               ; preds = %16, %13
  store i32 0, ptr %5, align 4, !tbaa !28
  br label %20

20:                                               ; preds = %34, %19
  %21 = load i32, ptr %5, align 4, !tbaa !28
  %22 = icmp slt i32 %21, 16
  br i1 %22, label %23, label %37

23:                                               ; preds = %20
  %24 = load i32, ptr %4, align 4, !tbaa !28
  %25 = icmp eq i32 %24, 3
  br i1 %25, label %26, label %30

26:                                               ; preds = %23
  %27 = load i32, ptr %5, align 4, !tbaa !28
  %28 = icmp eq i32 %27, 2
  br i1 %28, label %29, label %30

29:                                               ; preds = %26
  br label %34

30:                                               ; preds = %26, %23
  %31 = load ptr, ptr %3, align 8, !tbaa !31
  %32 = load i32, ptr %5, align 4, !tbaa !28
  %33 = add nsw i32 224, %32
  call void @jpeg_save_markers(ptr noundef %31, i32 noundef %33, i32 noundef 65535)
  br label %34

34:                                               ; preds = %30, %29
  %35 = load i32, ptr %5, align 4, !tbaa !28
  %36 = add nsw i32 %35, 1
  store i32 %36, ptr %5, align 4, !tbaa !28
  br label %20, !llvm.loop !254

37:                                               ; preds = %20
  br label %38

38:                                               ; preds = %37, %16
  %39 = load i32, ptr %4, align 4, !tbaa !28
  %40 = icmp eq i32 %39, 4
  br i1 %40, label %41, label %43

41:                                               ; preds = %38
  %42 = load ptr, ptr %3, align 8, !tbaa !31
  call void @jpeg_save_markers(ptr noundef %42, i32 noundef 226, i32 noundef 65535)
  br label %43

43:                                               ; preds = %41, %38
  call void @llvm.lifetime.end.p0(i64 4, ptr %5) #6
  ret void
}