; Function Attrs: nounwind uwtable
define dso_local void @jcopy_markers_setup(ptr noundef %0, i32 noundef %1) local_unnamed_addr #2 {
  %3 = and i32 %1, -5
  %or.cond.not = icmp eq i32 %3, 0
  br i1 %or.cond.not, label %5, label %4

4:                                                ; preds = %2
  tail call void @jpeg_save_markers(ptr noundef %0, i32 noundef 254, i32 noundef 65535) #8
  br label %5

5:                                                ; preds = %4, %2
  %6 = and i32 %1, -2
  %or.cond3 = icmp eq i32 %6, 2
  br i1 %or.cond3, label %.preheader, label %.loopexit

.preheader:                                       ; preds = %5
  %7 = icmp eq i32 %1, 3
  br i1 %7, label %.preheader.split, label %.preheader.split.us

.preheader.split.us:                              ; preds = %.preheader, %.preheader.split.us
  %.017.us = phi i32 [ %9, %.preheader.split.us ], [ 0, %.preheader ]
  %8 = or disjoint i32 %.017.us, 224
  tail call void @jpeg_save_markers(ptr noundef %0, i32 noundef %8, i32 noundef 65535) #8
  %9 = add nuw nsw i32 %.017.us, 1
  %exitcond.not = icmp eq i32 %9, 16
  br i1 %exitcond.not, label %.loopexit, label %.preheader.split.us, !llvm.loop !254

.preheader.split:                                 ; preds = %.preheader, %13
  %.017 = phi i32 [ %14, %13 ], [ 0, %.preheader ]
  %10 = icmp eq i32 %.017, 2
  br i1 %10, label %13, label %11

11:                                               ; preds = %.preheader.split
  %12 = or disjoint i32 %.017, 224
  tail call void @jpeg_save_markers(ptr noundef %0, i32 noundef %12, i32 noundef 65535) #8
  br label %13

13:                                               ; preds = %.preheader.split, %11
  %14 = add nuw nsw i32 %.017, 1
  %exitcond19.not = icmp eq i32 %14, 16
  br i1 %exitcond19.not, label %.loopexit, label %.preheader.split, !llvm.loop !254

.loopexit:                                        ; preds = %.preheader.split.us, %13, %5
  %15 = icmp eq i32 %1, 4
  br i1 %15, label %16, label %17

16:                                               ; preds = %.loopexit
  tail call void @jpeg_save_markers(ptr noundef %0, i32 noundef 226, i32 noundef 65535) #8
  br label %17

17:                                               ; preds = %16, %.loopexit
  ret void
}